target datalayout = "e-m:e-p270:32:32-p271:32:32-p272:64:64-i64:64-i128:128-f80:128-n8:16:32:64-S128"
target triple = "x86_64-pc-linux-gnu"

%struct.nameData = type { [64 x i8] }
%struct.FormData_pg_proc = type { i32, %struct.nameData, i32, i32, i32, float, float, i32, i32, i8, i8, i8, i8, i8, i8, i8, i16, i16, i32, %struct.oidvector }
%struct.oidvector = type { i32, i32, i32, i32, i32, i32, [0 x i32] }

@.str.1 = private unnamed_addr constant [15 x i8] c"functioncmds.c\00", align 1
@.str.59 = private unnamed_addr constant [9 x i8] c"internal\00", align 1
@.str.110 = private unnamed_addr constant [40 x i8] c"transform function must not be volatile\00", align 1
@__func__.check_transform_function = private unnamed_addr constant [25 x i8] c"check_transform_function\00", align 1
@.str.111 = private unnamed_addr constant [45 x i8] c"transform function must be a normal function\00", align 1
@.str.112 = private unnamed_addr constant [41 x i8] c"transform function must not return a set\00", align 1
@.str.113 = private unnamed_addr constant [42 x i8] c"transform function must take one argument\00", align 1
@.str.114 = private unnamed_addr constant [53 x i8] c"first argument of transform function must be type %s\00", align 1

; Function Attrs: nounwind uwtable
define internal void @check_transform_function(ptr noundef %0) #0 {
  %2 = alloca ptr, align 8
  store ptr %0, ptr %2, align 8
  %3 = load ptr, ptr %2, align 8
  %4 = getelementptr inbounds nuw %struct.FormData_pg_proc, ptr %3, i32 0, i32 14
  %5 = load i8, ptr %4, align 1
  %6 = sext i8 %5 to i32
  %7 = icmp eq i32 %6, 118
  br i1 %7, label %8, label %19

8:                                                ; preds = %1
  br label %9

9:                                                ; preds = %8
  br i1 true, label %10, label %12

10:                                               ; preds = %9
  %11 = call zeroext i1 @errstart_cold(i32 noundef 21, ptr noundef null) #10
  br i1 %11, label %14, label %17

12:                                               ; preds = %9
  %13 = call zeroext i1 @errstart(i32 noundef 21, ptr noundef null)
  br i1 %13, label %14, label %17

14:                                               ; preds = %12, %10
  %15 = call i32 @errcode(i32 noundef 117833860)
  %16 = call i32 (ptr, ...) @errmsg(ptr noundef @.str.110)
  call void @errfinish(ptr noundef @.str.1, i32 noundef 1804, ptr noundef @__func__.check_transform_function)
  br label %17

17:                                               ; preds = %14, %12, %10
  unreachable

18:                                               ; No predecessors!
  br label %19

19:                                               ; preds = %18, %1
  %20 = load ptr, ptr %2, align 8
  %21 = getelementptr inbounds nuw %struct.FormData_pg_proc, ptr %20, i32 0, i32 9
  %22 = load i8, ptr %21, align 4
  %23 = sext i8 %22 to i32
  %24 = icmp ne i32 %23, 102
  br i1 %24, label %25, label %36

25:                                               ; preds = %19
  br label %26

26:                                               ; preds = %25
  br i1 true, label %27, label %29

27:                                               ; preds = %26
  %28 = call zeroext i1 @errstart_cold(i32 noundef 21, ptr noundef null) #10
  br i1 %28, label %31, label %34

29:                                               ; preds = %26
  %30 = call zeroext i1 @errstart(i32 noundef 21, ptr noundef null)
  br i1 %30, label %31, label %34

31:                                               ; preds = %29, %27
  %32 = call i32 @errcode(i32 noundef 117833860)
  %33 = call i32 (ptr, ...) @errmsg(ptr noundef @.str.111)
  call void @errfinish(ptr noundef @.str.1, i32 noundef 1808, ptr noundef @__func__.check_transform_function)
  br label %34

34:                                               ; preds = %31, %29, %27
  unreachable

35:                                               ; No predecessors!
  br label %36

36:                                               ; preds = %35, %19
  %37 = load ptr, ptr %2, align 8
  %38 = getelementptr inbounds nuw %struct.FormData_pg_proc, ptr %37, i32 0, i32 13
  %39 = load i8, ptr %38, align 4, !range !4, !noundef !5
  %40 = trunc i8 %39 to i1
  br i1 %40, label %41, label %52

41:                                               ; preds = %36
  br label %42

42:                                               ; preds = %41
  br i1 true, label %43, label %45

43:                                               ; preds = %42
  %44 = call zeroext i1 @errstart_cold(i32 noundef 21, ptr noundef null) #10
  br i1 %44, label %47, label %50

45:                                               ; preds = %42
  %46 = call zeroext i1 @errstart(i32 noundef 21, ptr noundef null)
  br i1 %46, label %47, label %50

47:                                               ; preds = %45, %43
  %48 = call i32 @errcode(i32 noundef 117833860)
  %49 = call i32 (ptr, ...) @errmsg(ptr noundef @.str.112)
  call void @errfinish(ptr noundef @.str.1, i32 noundef 1812, ptr noundef @__func__.check_transform_function)
  br label %50

50:                                               ; preds = %47, %45, %43
  unreachable

51:                                               ; No predecessors!
  br label %52

52:                                               ; preds = %51, %36
  %53 = load ptr, ptr %2, align 8
  %54 = getelementptr inbounds nuw %struct.FormData_pg_proc, ptr %53, i32 0, i32 16
  %55 = load i16, ptr %54, align 4
  %56 = sext i16 %55 to i32
  %57 = icmp ne i32 %56, 1
  br i1 %57, label %58, label %69

58:                                               ; preds = %52
  br label %59

59:                                               ; preds = %58
  br i1 true, label %60, label %62

60:                                               ; preds = %59
  %61 = call zeroext i1 @errstart_cold(i32 noundef 21, ptr noundef null) #10
  br i1 %61, label %64, label %67

62:                                               ; preds = %59
  %63 = call zeroext i1 @errstart(i32 noundef 21, ptr noundef null)
  br i1 %63, label %64, label %67

64:                                               ; preds = %62, %60
  %65 = call i32 @errcode(i32 noundef 117833860)
  %66 = call i32 (ptr, ...) @errmsg(ptr noundef @.str.113)
  call void @errfinish(ptr noundef @.str.1, i32 noundef 1816, ptr noundef @__func__.check_transform_function)
  br label %67

67:                                               ; preds = %64, %62, %60
  unreachable

68:                                               ; No predecessors!
  br label %69

69:                                               ; preds = %68, %52
  %70 = load ptr, ptr %2, align 8
  %71 = getelementptr inbounds nuw %struct.FormData_pg_proc, ptr %70, i32 0, i32 19
  %72 = getelementptr inbounds nuw %struct.oidvector, ptr %71, i32 0, i32 6
  %73 = getelementptr inbounds [0 x i32], ptr %72, i64 0, i64 0
  %74 = load i32, ptr %73, align 4
  %75 = icmp ne i32 %74, 2281
  br i1 %75, label %76, label %87

76:                                               ; preds = %69
  br label %77

77:                                               ; preds = %76
  br i1 true, label %78, label %80

78:                                               ; preds = %77
  %79 = call zeroext i1 @errstart_cold(i32 noundef 21, ptr noundef null) #10
  br i1 %79, label %82, label %85

80:                                               ; preds = %77
  %81 = call zeroext i1 @errstart(i32 noundef 21, ptr noundef null)
  br i1 %81, label %82, label %85

82:                                               ; preds = %80, %78
  %83 = call i32 @errcode(i32 noundef 117833860)
  %84 = call i32 (ptr, ...) @errmsg(ptr noundef @.str.114, ptr noundef @.str.59)
  call void @errfinish(ptr noundef @.str.1, i32 noundef 1821, ptr noundef @__func__.check_transform_function)
  br label %85

85:                                               ; preds = %82, %80, %78
  unreachable

86:                                               ; No predecessors!
  br label %87

87:                                               ; preds = %86, %69
  ret void
}