; Function Attrs: nounwind uwtable
define internal fastcc void @check_transform_function(ptr noundef readonly captures(none) %0) unnamed_addr #0 {
  %2 = getelementptr inbounds nuw i8, ptr %0, i64 101
  %3 = load i8, ptr %2, align 1
  %4 = icmp eq i8 %3, 118
  br i1 %4, label %5, label %9

5:                                                ; preds = %1
  %6 = tail call zeroext i1 @errstart_cold(i32 noundef 21, ptr noundef null) #9
  tail call void @llvm.assume(i1 %6)
  %7 = tail call i32 @errcode(i32 noundef 117833860) #8
  %8 = tail call i32 (ptr, ...) @errmsg(ptr noundef nonnull @.str.110) #8
  tail call void @errfinish(ptr noundef nonnull @.str.1, i32 noundef 1804, ptr noundef nonnull @__func__.check_transform_function) #8
  unreachable

9:                                                ; preds = %1
  %10 = getelementptr inbounds nuw i8, ptr %0, i64 96
  %11 = load i8, ptr %10, align 4
  %.not = icmp eq i8 %11, 102
  br i1 %.not, label %16, label %12

12:                                               ; preds = %9
  %13 = tail call zeroext i1 @errstart_cold(i32 noundef 21, ptr noundef null) #9
  tail call void @llvm.assume(i1 %13)
  %14 = tail call i32 @errcode(i32 noundef 117833860) #8
  %15 = tail call i32 (ptr, ...) @errmsg(ptr noundef nonnull @.str.111) #8
  tail call void @errfinish(ptr noundef nonnull @.str.1, i32 noundef 1808, ptr noundef nonnull @__func__.check_transform_function) #8
  unreachable

16:                                               ; preds = %9
  %17 = getelementptr inbounds nuw i8, ptr %0, i64 100
  %18 = load i8, ptr %17, align 4, !range !4, !noundef !5
  %19 = trunc nuw i8 %18 to i1
  br i1 %19, label %20, label %24

20:                                               ; preds = %16
  %21 = tail call zeroext i1 @errstart_cold(i32 noundef 21, ptr noundef null) #9
  tail call void @llvm.assume(i1 %21)
  %22 = tail call i32 @errcode(i32 noundef 117833860) #8
  %23 = tail call i32 (ptr, ...) @errmsg(ptr noundef nonnull @.str.112) #8
  tail call void @errfinish(ptr noundef nonnull @.str.1, i32 noundef 1812, ptr noundef nonnull @__func__.check_transform_function) #8
  unreachable

24:                                               ; preds = %16
  %25 = getelementptr inbounds nuw i8, ptr %0, i64 104
  %26 = load i16, ptr %25, align 4
  %.not5 = icmp eq i16 %26, 1
  br i1 %.not5, label %31, label %27

27:                                               ; preds = %24
  %28 = tail call zeroext i1 @errstart_cold(i32 noundef 21, ptr noundef null) #9
  tail call void @llvm.assume(i1 %28)
  %29 = tail call i32 @errcode(i32 noundef 117833860) #8
  %30 = tail call i32 (ptr, ...) @errmsg(ptr noundef nonnull @.str.113) #8
  tail call void @errfinish(ptr noundef nonnull @.str.1, i32 noundef 1816, ptr noundef nonnull @__func__.check_transform_function) #8
  unreachable

31:                                               ; preds = %24
  %32 = getelementptr inbounds nuw i8, ptr %0, i64 136
  %33 = load i32, ptr %32, align 4
  %.not6 = icmp eq i32 %33, 2281
  br i1 %.not6, label %38, label %34

34:                                               ; preds = %31
  %35 = tail call zeroext i1 @errstart_cold(i32 noundef 21, ptr noundef null) #9
  tail call void @llvm.assume(i1 %35)
  %36 = tail call i32 @errcode(i32 noundef 117833860) #8
  %37 = tail call i32 (ptr, ...) @errmsg(ptr noundef nonnull @.str.114, ptr noundef nonnull @.str.59) #8
  tail call void @errfinish(ptr noundef nonnull @.str.1, i32 noundef 1821, ptr noundef nonnull @__func__.check_transform_function) #8
  unreachable

38:                                               ; preds = %31
  ret void
}